(dp0
I0
(icore.engine
StatCollection
p1
(dp2
S'status'
p3
I405
sS'latency'
p4
F0.0027670860290527344
sS'avg_connect_latency'
p5
F0.002221057317234364
sS'count'
p6
I3170
sS'total_connect_latency'
p7
F7.040751695632935
sS'avg_latency'
p8
F0.0022466661802225687
sS'reason'
p9
S'Method Not Allowed'
p10
sS'agent_start_time'
p11
S'09:04:43'
p12
sS'error_count'
p13
I3170
sS'total_latency'
p14
F7.121931791305542
sS'total_bytes'
p15
I0
sbs.