(dp0
I0
(icore.engine
StatCollection
p1
(dp2
S'status'
p3
I200
sS'latency'
p4
F0.11577391624450684
sS'avg_connect_latency'
p5
F0.12829717993736267
sS'count'
p6
I24
sS'total_connect_latency'
p7
F3.079132318496704
sS'avg_latency'
p8
F0.12834344307581583
sS'reason'
p9
S'OK'
p10
sS'agent_start_time'
p11
S'09:24:31'
p12
sS'error_count'
p13
I0
sS'total_latency'
p14
F3.08024263381958
sS'total_bytes'
p15
I51384
sbsI1
(icore.engine
StatCollection
p16
(dp17
g3
I200
sg4
F0.11596179008483887
sg5
F0.12823931376139322
sg6
I24
sg7
F3.0777435302734375
sg8
F0.12831330299377441
sg9
S'OK'
p18
sg11
S'09:24:31'
p19
sg13
I0
sg14
F3.079519271850586
sg15
I51384
sbsI2
(icore.engine
StatCollection
p20
(dp21
g3
I200
sg4
F0.11807107925415039
sg5
F0.12840129931767783
sg6
I24
sg7
F3.0816311836242676
sg8
F0.12845897674560547
sg9
S'OK'
p22
sg11
S'09:24:31'
p23
sg13
I0
sg14
F3.0830154418945312
sg15
I51384
sbs.