(dp0
I0
(icore.engine
StatCollection
p1
(dp2
S'status'
p3
I200
sS'latency'
p4
F0.05025982856750488
sS'avg_connect_latency'
p5
F0.044731429128935844
sS'count'
p6
I66
sS'total_connect_latency'
p7
F2.9522743225097656
sS'avg_latency'
p8
F0.04479228727745287
sS'reason'
p9
S'OK'
p10
sS'agent_start_time'
p11
S'09:59:45'
p12
sS'error_count'
p13
I0
sS'total_latency'
p14
F2.9562909603118896
sS'total_bytes'
p15
I141306
sbs.