(dp0
I0
(icore.engine
StatCollection
p1
(dp2
S'status'
p3
I405
sS'latency'
p4
F0.0017130374908447266
sS'avg_connect_latency'
p5
F0.002227399939653642
sS'count'
p6
I3190
sS'total_connect_latency'
p7
F7.105405807495117
sS'avg_latency'
p8
F0.0022523715578276534
sS'reason'
p9
S'Method Not Allowed'
p10
sS'agent_start_time'
p11
S'09:03:58'
p12
sS'error_count'
p13
I3190
sS'total_latency'
p14
F7.185065269470215
sS'total_bytes'
p15
I0
sbs.